ccopy_reg
_reconstructor
p0
(cgoogle.oauth2.credentials
Credentials
p1
c__builtin__
object
p2
Ntp3
Rp4
(dp5
S'_quota_project_id'
p6
NsS'_token_uri'
p7
Vhttps://oauth2.googleapis.com/token
p8
sS'_client_secret'
p9
V10Tl_kvIkbDPPjyEYgehh6Kh
p10
sS'_id_token'
p11
NsS'token'
p12
Vya29.a0Ae4lvC1KCgj4DlssRBB1xZh8V7qlu7qVp3YGx4mJ0z1mVbrSOvCdRcLUI41FHJ43-p1q9GVPMJFhPgE1LsGVwUeKDk_RdhoFEhjZSx8zWkcbybST0GwqEVvKTXgMnTvCfAuV-9qM6s3w2zWHRBrVyjAhBGoYmIgBUwPx
p13
sS'_refresh_token'
p14
V1//0gPxPUSyuu-XpCgYIARAAGBASNwF-L9Irghi_y8kDGYNjXmvDVKfBK9hk3-eldGOo6KgsDn4eW7Y14_kS-y5TH5wpvrGbfeXUgHA
p15
sS'_scopes'
p16
(lp17
S'https://www.googleapis.com/auth/calendar.readonly'
p18
asS'_client_id'
p19
V571231105627-8q49o9lkh9t3jdn61cbiru3a8s4nmtnr.apps.googleusercontent.com
p20
sS'expiry'
p21
cdatetime
datetime
p22
(S'\x07\xe4\x04\x06\x0c\x14\x13\x0b3\xdc'
p23
tp24
Rp25
sb.