ccopy_reg
_reconstructor
p0
(cgoogle.oauth2.credentials
Credentials
p1
c__builtin__
object
p2
Ntp3
Rp4
(dp5
S'_quota_project_id'
p6
NsS'_token_uri'
p7
Vhttps://oauth2.googleapis.com/token
p8
sS'_client_secret'
p9
V10Tl_kvIkbDPPjyEYgehh6Kh
p10
sS'_id_token'
p11
NsS'token'
p12
Vya29.a0Ae4lvC3Qi48cIITEDIP1pIWajYmUoNnvqJJeStb6eZQ2sBaJcaN8PzUPLGjWPY1d3QfgLcD6llCu4suDStDBN31idXpl2UbXhaVezhfZbq1Mr4bYxqNNxPpECoVNrRr5XaQpZbhCdbaMsNtZEkUSipCBQ2R2POvGpus
p13
sS'_refresh_token'
p14
V1//0gz_cxGxCU4LtCgYIARAAGBASNwF-L9Irsam1Iqbbz1BN5IWHG5yX4B24jMtU-G91hcVg8zFfOYxbMS4JCD6_v4lhss1mGsi9ct8
p15
sS'_scopes'
p16
(lp17
S'https://www.googleapis.com/auth/calendar.readonly'
p18
asS'_client_id'
p19
V571231105627-8q49o9lkh9t3jdn61cbiru3a8s4nmtnr.apps.googleusercontent.com
p20
sS'expiry'
p21
cdatetime
datetime
p22
(S'\x07\xe4\x04\x06\r\x12&\x06K\xfe'
p23
tp24
Rp25
sb.